; Function Attrs: mustprogress nounwind uwtable
define void @_ZN7rocksdb9lru_cache14LRUHandleTableD2Ev(ptr nocapture noundef nonnull align 8 dereferenceable(32) %this) unnamed_addr #3 align 2 personality ptr @__gxx_personality_v0 {
entry:
  %allocator_ = getelementptr inbounds i8, ptr %this, i64 24
  %0 = load ptr, ptr %allocator_, align 8
  %1 = load i32, ptr %this, align 8
  %sh_prom = zext nneg i32 %1 to i64
  %shl = shl nuw i64 1, %sh_prom
  %list_.i = getelementptr inbounds i8, ptr %this, i64 8
  br label %for.body.i

for.body.i:                                       ; preds = %for.inc.i, %entry
  %i.08.i = phi i64 [ 0, %entry ], [ %inc.i, %for.inc.i ]
  %2 = load ptr, ptr %list_.i, align 8
  %arrayidx.i.i = getelementptr inbounds ptr, ptr %2, i64 %i.08.i
  %3 = load ptr, ptr %arrayidx.i.i, align 8
  %cmp2.not5.i = icmp eq ptr %3, null
  br i1 %cmp2.not5.i, label %for.inc.i, label %while.body.i

while.body.i:                                     ; preds = %for.body.i, %"_ZZN7rocksdb9lru_cache14LRUHandleTableD1EvENK3$_0clEPNS0_9LRUHandleE.exit.i"
  %h.06.i = phi ptr [ %4, %"_ZZN7rocksdb9lru_cache14LRUHandleTableD1EvENK3$_0clEPNS0_9LRUHandleE.exit.i" ], [ %3, %for.body.i ]
  %next_hash.i = getelementptr inbounds i8, ptr %h.06.i, i64 16
  %4 = load ptr, ptr %next_hash.i, align 8
  %refs.i.i.i = getelementptr inbounds i8, ptr %h.06.i, i64 60
  %5 = load i32, ptr %refs.i.i.i, align 4
  %cmp.i.not.i.i = icmp eq i32 %5, 0
  br i1 %cmp.i.not.i.i, label %if.then.i.i, label %"_ZZN7rocksdb9lru_cache14LRUHandleTableD1EvENK3$_0clEPNS0_9LRUHandleE.exit.i"

if.then.i.i:                                      ; preds = %while.body.i
  %helper.i.i.i = getelementptr inbounds i8, ptr %h.06.i, i64 8
  %6 = load ptr, ptr %helper.i.i.i, align 8
  %7 = load ptr, ptr %6, align 8
  %tobool.not.i.i.i = icmp eq ptr %7, null
  br i1 %tobool.not.i.i.i, label %_ZN7rocksdb9lru_cache9LRUHandle4FreeEPNS_15MemoryAllocatorE.exit.i.i, label %if.then.i.i.i

if.then.i.i.i:                                    ; preds = %if.then.i.i
  %8 = load ptr, ptr %h.06.i, align 8
  invoke void %7(ptr noundef %8, ptr noundef %0)
          to label %_ZN7rocksdb9lru_cache9LRUHandle4FreeEPNS_15MemoryAllocatorE.exit.i.i unwind label %terminate.lpad

_ZN7rocksdb9lru_cache9LRUHandle4FreeEPNS_15MemoryAllocatorE.exit.i.i: ; preds = %if.then.i.i.i, %if.then.i.i
  tail call void @free(ptr noundef nonnull %h.06.i) #25
  br label %"_ZZN7rocksdb9lru_cache14LRUHandleTableD1EvENK3$_0clEPNS0_9LRUHandleE.exit.i"

"_ZZN7rocksdb9lru_cache14LRUHandleTableD1EvENK3$_0clEPNS0_9LRUHandleE.exit.i": ; preds = %_ZN7rocksdb9lru_cache9LRUHandle4FreeEPNS_15MemoryAllocatorE.exit.i.i, %while.body.i
  %cmp2.not.i = icmp eq ptr %4, null
  br i1 %cmp2.not.i, label %for.inc.i, label %while.body.i, !llvm.loop !4

for.inc.i:                                        ; preds = %"_ZZN7rocksdb9lru_cache14LRUHandleTableD1EvENK3$_0clEPNS0_9LRUHandleE.exit.i", %for.body.i
  %inc.i = add nuw i64 %i.08.i, 1
  %exitcond.not.i = icmp eq i64 %inc.i, %shl
  br i1 %exitcond.not.i, label %invoke.cont, label %for.body.i, !llvm.loop !6

invoke.cont:                                      ; preds = %for.inc.i
  %9 = load ptr, ptr %list_.i, align 8
  %cmp.not.i = icmp eq ptr %9, null
  br i1 %cmp.not.i, label %_ZNSt10unique_ptrIA_PN7rocksdb9lru_cache9LRUHandleESt14default_deleteIS4_EED2Ev.exit, label %_ZNKSt14default_deleteIA_PN7rocksdb9lru_cache9LRUHandleEEclIS3_EENSt9enable_ifIXsr14is_convertibleIPA_T_PS4_EE5valueEvE4typeEPS8_.exit.i

_ZNKSt14default_deleteIA_PN7rocksdb9lru_cache9LRUHandleEEclIS3_EENSt9enable_ifIXsr14is_convertibleIPA_T_PS4_EE5valueEvE4typeEPS8_.exit.i: ; preds = %invoke.cont
  tail call void @_ZdaPv(ptr noundef nonnull %9) #26
  br label %_ZNSt10unique_ptrIA_PN7rocksdb9lru_cache9LRUHandleESt14default_deleteIS4_EED2Ev.exit

_ZNSt10unique_ptrIA_PN7rocksdb9lru_cache9LRUHandleESt14default_deleteIS4_EED2Ev.exit: ; preds = %invoke.cont, %_ZNKSt14default_deleteIA_PN7rocksdb9lru_cache9LRUHandleEEclIS3_EENSt9enable_ifIXsr14is_convertibleIPA_T_PS4_EE5valueEvE4typeEPS8_.exit.i
  store ptr null, ptr %list_.i, align 8
  ret void

terminate.lpad:                                   ; preds = %if.then.i.i.i
  %10 = landingpad { ptr, i32 }
          catch ptr null
  %11 = extractvalue { ptr, i32 } %10, 0
  tail call void @__clang_call_terminate(ptr %11) #27
  unreachable
}